; Function Attrs: mustprogress nofree norecurse nosync nounwind willreturn memory(read, inaccessiblemem: none) uwtable
define hidden noundef i32 @_ZNK4cvc58internal6theory5arith6linear20LinearEqualityModule12minColLengthEjj(ptr noundef nonnull readonly align 8 captures(none) dereferenceable(456) %0, i32 noundef %1, i32 noundef %2) local_unnamed_addr #10 align 2 {
  %4 = getelementptr inbounds nuw i8, ptr %0, i64 8
  %5 = load ptr, ptr %4, align 8, !tbaa !106
  %6 = getelementptr inbounds nuw i8, ptr %5, i64 24
  %7 = zext i32 %1 to i64
  %8 = load ptr, ptr %6, align 8, !tbaa !107
  %9 = getelementptr inbounds nuw %"class.cvc5::internal::theory::arith::linear::ColumnVector", ptr %8, i64 %7, i32 0, i32 1
  %10 = load i32, ptr %9, align 4, !tbaa !189
  %11 = zext i32 %2 to i64
  %12 = getelementptr inbounds nuw %"class.cvc5::internal::theory::arith::linear::ColumnVector", ptr %8, i64 %11, i32 0, i32 1
  %13 = load i32, ptr %12, align 4, !tbaa !189
  %14 = icmp ugt i32 %10, %13
  br i1 %14, label %18, label %15

15:                                               ; preds = %3
  %16 = icmp eq i32 %10, %13
  br i1 %16, label %17, label %18

17:                                               ; preds = %15
  %..i = tail call noundef i32 @llvm.umin.i32(i32 %1, i32 %2)
  br label %18

18:                                               ; preds = %15, %3, %17
  %.0 = phi i32 [ %..i, %17 ], [ %2, %3 ], [ %1, %15 ]
  ret i32 %.0
}